Certificate:
    Data:
        Version: 3 (0x2)
        Serial Number: 11 (0xb)
        Signature Algorithm: sha256WithRSAEncryption
        Issuer: C=US, O=Google, OU=Enterprise, CN=Single Root CA
        Validity
            Not Before: Apr  1 22:34:53 2024 GMT
            Not After : Apr  1 22:34:53 2034 GMT
        Subject: L=US, O=Google, OU=Enterprise, CN=clientjwt.domain.com
        Subject Public Key Info:
            Public Key Algorithm: rsaEncryption
                Public-Key: (2048 bit)
                Modulus:
                    00:cf:79:7a:0d:88:2f:cc:b1:4e:b4:17:69:8e:b1:
                    54:16:95:4f:31:8d:68:ed:85:84:6c:0d:c8:be:19:
                    e0:00:6b:08:c4:91:8f:a9:44:33:ef:ee:f6:b6:61:
                    c2:9b:5a:23:99:4c:bf:99:48:7c:ed:b9:e1:15:3b:
                    70:05:44:13:30:a7:49:36:5c:ce:56:00:64:42:ec:
                    b0:32:45:f2:5a:b9:2c:98:36:1d:fa:76:18:08:73:
                    07:c0:23:91:db:f9:b5:a5:a7:0d:cb:4e:fc:c1:cc:
                    8f:0f:ea:59:d0:65:be:80:e4:7c:ad:f6:7f:c6:43:
                    92:12:ce:e5:81:f5:2b:e2:32:15:b7:47:10:ba:97:
                    53:13:27:ac:b1:04:36:11:40:08:3d:d8:62:a1:b8:
                    84:6a:38:a7:b9:0a:18:dd:91:51:75:4c:a2:0c:95:
                    f4:d0:be:6e:e7:e5:a5:fd:b0:42:75:d0:0d:69:c3:
                    0f:96:7b:c2:5a:6d:6f:3e:38:d8:0a:17:40:39:aa:
                    02:55:f0:db:00:15:3d:f7:6b:68:3c:9c:5f:14:97:
                    3a:62:c7:07:bb:54:32:6e:ce:1b:04:6e:3b:d8:e6:
                    8c:36:2e:e1:46:72:7c:2b:e1:60:a6:5d:05:90:22:
                    27:4a:a5:58:11:d5:a2:83:63:7a:24:28:a2:9a:b7:
                    a2:57
                Exponent: 65537 (0x10001)
        X509v3 extensions:
            X509v3 Key Usage: critical
                Digital Signature
            X509v3 Basic Constraints: 
                CA:FALSE
            X509v3 Subject Key Identifier: 
                16:EF:36:21:C8:72:B1:CB:7B:8A:57:40:1D:57:BE:9E:23:A8:0B:67
            X509v3 Authority Key Identifier: 
                EC:F0:EA:53:53:3F:9F:23:DC:C1:0E:31:10:37:07:DE:DE:E7:6E:F3
            Authority Information Access: 
                CA Issuers - URI:http://pki.esodemoapp2.com/ca/root-ca.cer
            X509v3 CRL Distribution Points: 
                Full Name:
                  URI:http://pki.esodemoapp2.com/ca/root-ca.crl
            X509v3 Subject Alternative Name: 
                DNS:client.domain.com
    Signature Algorithm: sha256WithRSAEncryption
    Signature Value:
        58:d6:87:05:b1:13:f0:e9:74:53:f9:40:19:85:82:32:41:2e:
        de:b3:dd:32:75:01:07:b1:ca:8a:e8:21:1c:cd:ba:85:81:3c:
        98:40:30:d5:3d:6f:e7:38:05:6d:fd:ed:59:3e:13:97:b8:15:
        72:e4:cb:fa:bd:87:d8:dc:15:b3:a5:a7:9e:76:0b:53:d2:38:
        8d:7e:35:a8:b6:10:41:c9:87:dc:72:52:43:49:1a:18:69:c1:
        94:81:4d:77:68:fe:03:32:ad:ad:5b:b3:26:3d:11:a2:24:50:
        79:76:81:b6:0f:23:dc:24:51:df:c9:f7:2b:0b:fd:d3:6f:02:
        83:f3:19:e1:a0:92:93:64:46:60:2e:99:2c:72:ce:19:f9:42:
        4d:6b:61:fa:f7:df:b8:e7:ae:be:9a:ae:1b:79:37:0c:30:72:
        9d:55:a3:c1:03:81:53:bc:2c:76:3f:85:fb:df:74:e5:c8:97:
        51:98:36:44:83:3b:69:48:95:be:ed:fc:f8:a8:d9:0d:ee:55:
        5c:31:78:44:00:68:01:89:67:60:0c:63:0c:f8:bc:85:f7:14:
        c5:51:98:8b:38:b7:0b:a7:5c:53:14:1a:cc:25:be:87:1f:f8:
        f2:2b:61:52:9f:70:72:c6:69:0d:d9:da:e5:18:94:8b:e3:61:
        fe:e3:50:9b
-----BEGIN CERTIFICATE-----
MIIEGTCCAwGgAwIBAgIBCzANBgkqhkiG9w0BAQsFADBMMQswCQYDVQQGEwJVUzEP
MA0GA1UECgwGR29vZ2xlMRMwEQYDVQQLDApFbnRlcnByaXNlMRcwFQYDVQQDDA5T
aW5nbGUgUm9vdCBDQTAeFw0yNDA0MDEyMjM0NTNaFw0zNDA0MDEyMjM0NTNaMFIx
CzAJBgNVBAcMAlVTMQ8wDQYDVQQKDAZHb29nbGUxEzARBgNVBAsMCkVudGVycHJp
c2UxHTAbBgNVBAMMFGNsaWVudGp3dC5kb21haW4uY29tMIIBIjANBgkqhkiG9w0B
AQEFAAOCAQ8AMIIBCgKCAQEAz3l6DYgvzLFOtBdpjrFUFpVPMY1o7YWEbA3Ivhng
AGsIxJGPqUQz7+72tmHCm1ojmUy/mUh87bnhFTtwBUQTMKdJNlzOVgBkQuywMkXy
WrksmDYd+nYYCHMHwCOR2/m1pacNy078wcyPD+pZ0GW+gOR8rfZ/xkOSEs7lgfUr
4jIVt0cQupdTEyessQQ2EUAIPdhiobiEajinuQoY3ZFRdUyiDJX00L5u5+Wl/bBC
ddANacMPlnvCWm1vPjjYChdAOaoCVfDbABU992toPJxfFJc6YscHu1Qybs4bBG47
2OaMNi7hRnJ8K+Fgpl0FkCInSqVYEdWig2N6JCiimreiVwIDAQABo4H/MIH8MA4G
A1UdDwEB/wQEAwIHgDAJBgNVHRMEAjAAMB0GA1UdDgQWBBQW7zYhyHKxy3uKV0Ad
V76eI6gLZzAfBgNVHSMEGDAWgBTs8OpTUz+fI9zBDjEQNwfe3udu8zBFBggrBgEF
BQcBAQQ5MDcwNQYIKwYBBQUHMAKGKWh0dHA6Ly9wa2kuZXNvZGVtb2FwcDIuY29t
L2NhL3Jvb3QtY2EuY2VyMDoGA1UdHwQzMDEwL6AtoCuGKWh0dHA6Ly9wa2kuZXNv
ZGVtb2FwcDIuY29tL2NhL3Jvb3QtY2EuY3JsMBwGA1UdEQQVMBOCEWNsaWVudC5k
b21haW4uY29tMA0GCSqGSIb3DQEBCwUAA4IBAQBY1ocFsRPw6XRT+UAZhYIyQS7e
s90ydQEHscqK6CEczbqFgTyYQDDVPW/nOAVt/e1ZPhOXuBVy5Mv6vYfY3BWzpaee
dgtT0jiNfjWothBByYfcclJDSRoYacGUgU13aP4DMq2tW7MmPRGiJFB5doG2DyPc
JFHfyfcrC/3TbwKD8xnhoJKTZEZgLpkscs4Z+UJNa2H699+4566+mq4beTcMMHKd
VaPBA4FTvCx2P4X733TlyJdRmDZEgztpSJW+7fz4qNkN7lVcMXhEAGgBiWdgDGMM
+LyF9xTFUZiLOLcLp1xTFBrMJb6HH/jyK2FSn3ByxmkN2drlGJSL42H+41Cb
-----END CERTIFICATE-----
